target datalayout = "e-m:e-p270:32:32-p271:32:32-p272:64:64-i64:64-i128:128-f80:128-n8:16:32:64-S128"
target triple = "x86_64-pc-linux-gnu"

%struct.BTInsertStateData = type { ptr, i64, ptr, i32, i8, i16, i16, i32 }
%struct.RelationData = type { %struct.RelFileLocator, ptr, i32, i32, i8, i8, i8, i8, i8, i32, i32, i32, i32, ptr, ptr, i32, %struct.LockInfoData, ptr, ptr, ptr, ptr, ptr, i8, ptr, ptr, ptr, ptr, ptr, ptr, i32, ptr, i8, ptr, ptr, i32, i8, i32, ptr, i8, ptr, ptr, ptr, ptr, ptr, ptr, ptr, i32, ptr, ptr, ptr, ptr, ptr, ptr, ptr, ptr, ptr, ptr, ptr, ptr, ptr, ptr, ptr, ptr, ptr, ptr, ptr, i32, i8, ptr }
%struct.RelFileLocator = type { i32, i32, i32 }
%struct.LockInfoData = type { %struct.LockRelId }
%struct.LockRelId = type { i32, i32 }
%struct.PageHeaderData = type { %struct.PageXLogRecPtr, i16, i16, i16, i16, i16, i16, i32, [0 x %struct.ItemIdData] }
%struct.PageXLogRecPtr = type { i32, i32 }
%struct.ItemIdData = type { i32 }
%struct.BTPageOpaqueData = type { i32, i32, i32, i16, i16 }
%struct.FormData_pg_class = type { i32, %struct.nameData, i32, i32, i32, i32, i32, i32, i32, i32, float, i32, i32, i8, i8, i8, i8, i16, i16, i8, i8, i8, i8, i8, i8, i8, i8, i32, i32, i32 }
%struct.nameData = type { [64 x i8] }

@.str.1 = private unnamed_addr constant [12 x i8] c"nbtinsert.c\00", align 1
@.str.4 = private unnamed_addr constant [31 x i8] c"fell off the end of index \22%s\22\00", align 1
@__func__._bt_stepright = private unnamed_addr constant [14 x i8] c"_bt_stepright\00", align 1
@LocalBufferBlockPointers = external global ptr, align 8
@BufferBlocks = external global ptr, align 8

; Function Attrs: inlinehint nounwind uwtable
define internal ptr @BufferGetBlock(i32 noundef %0) #3 {
  %2 = alloca ptr, align 8
  %3 = alloca i32, align 4
  store i32 %0, ptr %3, align 4
  %4 = load i32, ptr %3, align 4
  %5 = icmp slt i32 %4, 0
  br i1 %5, label %6, label %14

6:                                                ; preds = %1
  %7 = load ptr, ptr @LocalBufferBlockPointers, align 8
  %8 = load i32, ptr %3, align 4
  %9 = sub i32 0, %8
  %10 = sub i32 %9, 1
  %11 = sext i32 %10 to i64
  %12 = getelementptr inbounds ptr, ptr %7, i64 %11
  %13 = load ptr, ptr %12, align 8
  store ptr %13, ptr %2, align 8
  br label %21

14:                                               ; preds = %1
  %15 = load ptr, ptr @BufferBlocks, align 8
  %16 = load i32, ptr %3, align 4
  %17 = sub i32 %16, 1
  %18 = sext i32 %17 to i64
  %19 = mul i64 %18, 8192
  %20 = getelementptr inbounds nuw i8, ptr %15, i64 %19
  store ptr %20, ptr %2, align 8
  br label %21

21:                                               ; preds = %14, %6
  %22 = load ptr, ptr %2, align 8
  ret ptr %22
}

; Function Attrs: inlinehint nounwind uwtable
define internal void @PageValidateSpecialPointer(ptr noundef %0) #3 {
  %2 = alloca ptr, align 8
  store ptr %0, ptr %2, align 8
  ret void
}

; Function Attrs: inlinehint nounwind uwtable
define internal ptr @BufferGetPage(i32 noundef %0) #3 {
  %2 = alloca i32, align 4
  store i32 %0, ptr %2, align 4
  %3 = load i32, ptr %2, align 4
  %4 = call ptr @BufferGetBlock(i32 noundef %3)
  ret ptr %4
}

; Function Attrs: nounwind uwtable
define internal void @_bt_stepright(ptr noundef %0, ptr noundef %1, ptr noundef %2, ptr noundef %3) #0 {
  %5 = alloca ptr, align 8
  %6 = alloca ptr, align 8
  %7 = alloca ptr, align 8
  %8 = alloca ptr, align 8
  %9 = alloca ptr, align 8
  %10 = alloca ptr, align 8
  %11 = alloca i32, align 4
  %12 = alloca i32, align 4
  store ptr %0, ptr %5, align 8
  store ptr %1, ptr %6, align 8
  store ptr %2, ptr %7, align 8
  store ptr %3, ptr %8, align 8
  call void @llvm.lifetime.start.p0(i64 8, ptr %9) #8
  call void @llvm.lifetime.start.p0(i64 8, ptr %10) #8
  call void @llvm.lifetime.start.p0(i64 4, ptr %11) #8
  call void @llvm.lifetime.start.p0(i64 4, ptr %12) #8
  %13 = load ptr, ptr %7, align 8
  %14 = getelementptr inbounds nuw %struct.BTInsertStateData, ptr %13, i32 0, i32 3
  %15 = load i32, ptr %14, align 8
  %16 = call ptr @BufferGetPage(i32 noundef %15)
  store ptr %16, ptr %9, align 8
  %17 = load ptr, ptr %9, align 8
  call void @PageValidateSpecialPointer(ptr noundef %17)
  %18 = load ptr, ptr %9, align 8
  %19 = load ptr, ptr %9, align 8
  %20 = getelementptr inbounds nuw %struct.PageHeaderData, ptr %19, i32 0, i32 5
  %21 = load i16, ptr %20, align 4
  %22 = zext i16 %21 to i32
  %23 = sext i32 %22 to i64
  %24 = getelementptr inbounds i8, ptr %18, i64 %23
  store ptr %24, ptr %10, align 8
  store i32 0, ptr %11, align 4
  %25 = load ptr, ptr %10, align 8
  %26 = getelementptr inbounds nuw %struct.BTPageOpaqueData, ptr %25, i32 0, i32 1
  %27 = load i32, ptr %26, align 4
  store i32 %27, ptr %12, align 4
  br label %28

28:                                               ; preds = %84, %49, %4
  %29 = load ptr, ptr %5, align 8
  %30 = load i32, ptr %11, align 4
  %31 = load i32, ptr %12, align 4
  %32 = call i32 @_bt_relandgetbuf(ptr noundef %29, i32 noundef %30, i32 noundef %31, i32 noundef 2)
  store i32 %32, ptr %11, align 4
  %33 = load i32, ptr %11, align 4
  %34 = call ptr @BufferGetPage(i32 noundef %33)
  store ptr %34, ptr %9, align 8
  %35 = load ptr, ptr %9, align 8
  call void @PageValidateSpecialPointer(ptr noundef %35)
  %36 = load ptr, ptr %9, align 8
  %37 = load ptr, ptr %9, align 8
  %38 = getelementptr inbounds nuw %struct.PageHeaderData, ptr %37, i32 0, i32 5
  %39 = load i16, ptr %38, align 4
  %40 = zext i16 %39 to i32
  %41 = sext i32 %40 to i64
  %42 = getelementptr inbounds i8, ptr %36, i64 %41
  store ptr %42, ptr %10, align 8
  %43 = load ptr, ptr %10, align 8
  %44 = getelementptr inbounds nuw %struct.BTPageOpaqueData, ptr %43, i32 0, i32 3
  %45 = load i16, ptr %44, align 4
  %46 = zext i16 %45 to i32
  %47 = and i32 %46, 128
  %48 = icmp ne i32 %47, 0
  br i1 %48, label %49, label %54

49:                                               ; preds = %28
  %50 = load ptr, ptr %5, align 8
  %51 = load ptr, ptr %6, align 8
  %52 = load i32, ptr %11, align 4
  %53 = load ptr, ptr %8, align 8
  call void @_bt_finish_split(ptr noundef %50, ptr noundef %51, i32 noundef %52, ptr noundef %53)
  store i32 0, ptr %11, align 4
  br label %28

54:                                               ; preds = %28
  %55 = load ptr, ptr %10, align 8
  %56 = getelementptr inbounds nuw %struct.BTPageOpaqueData, ptr %55, i32 0, i32 3
  %57 = load i16, ptr %56, align 4
  %58 = zext i16 %57 to i32
  %59 = and i32 %58, 20
  %60 = icmp ne i32 %59, 0
  br i1 %60, label %62, label %61

61:                                               ; preds = %54
  br label %88

62:                                               ; preds = %54
  %63 = load ptr, ptr %10, align 8
  %64 = getelementptr inbounds nuw %struct.BTPageOpaqueData, ptr %63, i32 0, i32 1
  %65 = load i32, ptr %64, align 4
  %66 = icmp eq i32 %65, 0
  br i1 %66, label %67, label %84

67:                                               ; preds = %62
  br label %68

68:                                               ; preds = %67
  br i1 true, label %69, label %71

69:                                               ; preds = %68
  %70 = call zeroext i1 @errstart_cold(i32 noundef 21, ptr noundef null) #9
  br i1 %70, label %73, label %81

71:                                               ; preds = %68
  %72 = call zeroext i1 @errstart(i32 noundef 21, ptr noundef null)
  br i1 %72, label %73, label %81

73:                                               ; preds = %71, %69
  %74 = load ptr, ptr %5, align 8
  %75 = getelementptr inbounds nuw %struct.RelationData, ptr %74, i32 0, i32 13
  %76 = load ptr, ptr %75, align 8
  %77 = getelementptr inbounds nuw %struct.FormData_pg_class, ptr %76, i32 0, i32 1
  %78 = getelementptr inbounds nuw %struct.nameData, ptr %77, i32 0, i32 0
  %79 = getelementptr inbounds [64 x i8], ptr %78, i64 0, i64 0
  %80 = call i32 (ptr, ...) @errmsg_internal(ptr noundef @.str.4, ptr noundef %79)
  call void @errfinish(ptr noundef @.str.1, i32 noundef 1064, ptr noundef @__func__._bt_stepright)
  br label %81

81:                                               ; preds = %73, %71, %69
  unreachable

82:                                               ; No predecessors!
  br label %83

83:                                               ; preds = %82
  br label %84

84:                                               ; preds = %83, %62
  %85 = load ptr, ptr %10, align 8
  %86 = getelementptr inbounds nuw %struct.BTPageOpaqueData, ptr %85, i32 0, i32 1
  %87 = load i32, ptr %86, align 4
  store i32 %87, ptr %12, align 4
  br label %28

88:                                               ; preds = %61
  %89 = load ptr, ptr %5, align 8
  %90 = load ptr, ptr %7, align 8
  %91 = getelementptr inbounds nuw %struct.BTInsertStateData, ptr %90, i32 0, i32 3
  %92 = load i32, ptr %91, align 8
  call void @_bt_relbuf(ptr noundef %89, i32 noundef %92)
  %93 = load i32, ptr %11, align 4
  %94 = load ptr, ptr %7, align 8
  %95 = getelementptr inbounds nuw %struct.BTInsertStateData, ptr %94, i32 0, i32 3
  store i32 %93, ptr %95, align 8
  %96 = load ptr, ptr %7, align 8
  %97 = getelementptr inbounds nuw %struct.BTInsertStateData, ptr %96, i32 0, i32 4
  store i8 0, ptr %97, align 4
  call void @llvm.lifetime.end.p0(i64 4, ptr %12) #8
  call void @llvm.lifetime.end.p0(i64 4, ptr %11) #8
  call void @llvm.lifetime.end.p0(i64 8, ptr %10) #8
  call void @llvm.lifetime.end.p0(i64 8, ptr %9) #8
  ret void
}