; Function Attrs: nounwind uwtable
define internal fastcc void @_bt_stepright(ptr noundef %0, ptr noundef %1, ptr noundef nonnull captures(none) %2, ptr noundef %3) unnamed_addr #0 {
  %5 = getelementptr inbounds nuw i8, ptr %2, i64 24
  %6 = load i32, ptr %5, align 8
  %7 = icmp slt i32 %6, 0
  br i1 %7, label %8, label %14

8:                                                ; preds = %4
  %9 = load ptr, ptr @LocalBufferBlockPointers, align 8
  %10 = xor i32 %6, -1
  %11 = zext nneg i32 %10 to i64
  %12 = getelementptr inbounds nuw ptr, ptr %9, i64 %11
  %13 = load ptr, ptr %12, align 8
  br label %BufferGetPage.exit

14:                                               ; preds = %4
  %15 = load ptr, ptr @BufferBlocks, align 8
  %16 = add nsw i32 %6, -1
  %17 = sext i32 %16 to i64
  %18 = shl nsw i64 %17, 13
  %19 = getelementptr inbounds nuw i8, ptr %15, i64 %18
  br label %BufferGetPage.exit

BufferGetPage.exit:                               ; preds = %8, %14
  %.0.i.i = phi ptr [ %13, %8 ], [ %19, %14 ]
  %20 = getelementptr inbounds nuw i8, ptr %.0.i.i, i64 16
  %21 = load i16, ptr %20, align 4
  %22 = zext i16 %21 to i64
  %23 = getelementptr inbounds nuw i8, ptr %.0.i.i, i64 %22
  %24 = getelementptr inbounds nuw i8, ptr %23, i64 4
  %25 = load i32, ptr %24, align 4
  br label %.outer

.outer:                                           ; preds = %52, %BufferGetPage.exit
  %.025.ph = phi i32 [ %27, %52 ], [ 0, %BufferGetPage.exit ]
  %.0.ph = phi i32 [ %54, %52 ], [ %25, %BufferGetPage.exit ]
  br label %26

26:                                               ; preds = %.outer, %49
  %.025 = phi i32 [ 0, %49 ], [ %.025.ph, %.outer ]
  %27 = tail call i32 @_bt_relandgetbuf(ptr noundef %0, i32 noundef %.025, i32 noundef %.0.ph, i32 noundef 2) #9
  %28 = icmp slt i32 %27, 0
  br i1 %28, label %29, label %35

29:                                               ; preds = %26
  %30 = load ptr, ptr @LocalBufferBlockPointers, align 8
  %31 = xor i32 %27, -1
  %32 = zext nneg i32 %31 to i64
  %33 = getelementptr inbounds nuw ptr, ptr %30, i64 %32
  %34 = load ptr, ptr %33, align 8
  br label %BufferGetPage.exit29

35:                                               ; preds = %26
  %36 = load ptr, ptr @BufferBlocks, align 8
  %37 = add nsw i32 %27, -1
  %38 = sext i32 %37 to i64
  %39 = shl nsw i64 %38, 13
  %40 = getelementptr inbounds nuw i8, ptr %36, i64 %39
  br label %BufferGetPage.exit29

BufferGetPage.exit29:                             ; preds = %29, %35
  %.0.i.i28 = phi ptr [ %34, %29 ], [ %40, %35 ]
  %41 = getelementptr inbounds nuw i8, ptr %.0.i.i28, i64 16
  %42 = load i16, ptr %41, align 4
  %43 = zext i16 %42 to i64
  %44 = getelementptr inbounds nuw i8, ptr %.0.i.i28, i64 %43
  %45 = getelementptr inbounds nuw i8, ptr %44, i64 12
  %46 = load i16, ptr %45, align 4
  %47 = zext i16 %46 to i32
  %48 = and i32 %47, 128
  %.not = icmp eq i32 %48, 0
  br i1 %.not, label %50, label %49

49:                                               ; preds = %BufferGetPage.exit29
  tail call void @_bt_finish_split(ptr noundef %0, ptr noundef %1, i32 noundef %27, ptr noundef %3)
  br label %26

50:                                               ; preds = %BufferGetPage.exit29
  %51 = and i32 %47, 20
  %.not27 = icmp eq i32 %51, 0
  br i1 %.not27, label %62, label %52

52:                                               ; preds = %50
  %53 = getelementptr inbounds nuw i8, ptr %44, i64 4
  %54 = load i32, ptr %53, align 4
  %55 = icmp eq i32 %54, 0
  br i1 %55, label %56, label %.outer

56:                                               ; preds = %52
  %57 = tail call zeroext i1 @errstart_cold(i32 noundef 21, ptr noundef null) #10
  tail call void @llvm.assume(i1 %57)
  %58 = getelementptr inbounds nuw i8, ptr %0, i64 56
  %59 = load ptr, ptr %58, align 8
  %60 = getelementptr inbounds nuw i8, ptr %59, i64 4
  %61 = tail call i32 (ptr, ...) @errmsg_internal(ptr noundef nonnull @.str.4, ptr noundef nonnull %60) #9
  tail call void @errfinish(ptr noundef nonnull @.str.1, i32 noundef 1064, ptr noundef nonnull @__func__._bt_stepright) #9
  unreachable

62:                                               ; preds = %50
  %63 = load i32, ptr %5, align 8
  tail call void @_bt_relbuf(ptr noundef %0, i32 noundef %63) #9
  store i32 %27, ptr %5, align 8
  %64 = getelementptr inbounds nuw i8, ptr %2, i64 28
  store i8 0, ptr %64, align 4
  ret void
}